; Function Attrs: mustprogress nounwind uwtable
define hidden noundef i64 @_ZN14XPageAllocator17increase_capacityEm(ptr noundef nonnull align 8 dereferenceable(609) %0, i64 noundef %1) local_unnamed_addr #1 align 2 {
  %3 = getelementptr inbounds i8, ptr %0, i64 408
  %4 = load volatile i64, ptr %3, align 8
  %5 = getelementptr inbounds i8, ptr %0, i64 416
  %6 = load volatile i64, ptr %5, align 8
  %7 = sub i64 %4, %6
  %8 = tail call noundef i64 @llvm.umin.i64(i64 %1, i64 %7)
  %.not = icmp eq i64 %8, 0
  br i1 %.not, label %12, label %9

9:                                                ; preds = %2
  %10 = tail call noundef i64 asm sideeffect "lock xaddq $0,($2)", "=r,0,r,~{cc},~{memory},~{dirflag},~{fpsr},~{flags}"(i64 %8, ptr nonnull %5) #14, !srcloc !6
  %11 = getelementptr inbounds i8, ptr %0, i64 40
  tail call void @_ZN10XPageCache15set_last_commitEv(ptr noundef nonnull align 8 dereferenceable(64) %11) #14
  br label %12

12:                                               ; preds = %9, %2
  ret i64 %8
}